target datalayout = "e-m:e-p270:32:32-p271:32:32-p272:64:64-i64:64-i128:128-f80:128-n8:16:32:64-S128"
target triple = "x86_64-pc-linux-gnu"

%struct.ggml_tensor = type { i32, ptr, [4 x i64], [4 x i64], i32, [16 x i32], i32, [10 x ptr], ptr, i64, ptr, [64 x i8], ptr, [8 x i8] }

; Function Attrs: nounwind uwtable
define ptr @ggml_new_tensor(ptr noundef %0, i32 noundef %1, i32 noundef %2, ptr noundef %3) #5 {
  %5 = alloca ptr, align 8
  %6 = alloca i32, align 4
  %7 = alloca i32, align 4
  %8 = alloca ptr, align 8
  store ptr %0, ptr %5, align 8, !tbaa !48
  store i32 %1, ptr %6, align 4, !tbaa !8
  store i32 %2, ptr %7, align 4, !tbaa !8
  store ptr %3, ptr %8, align 8, !tbaa !88
  %9 = load ptr, ptr %5, align 8, !tbaa !48
  %10 = load i32, ptr %6, align 4, !tbaa !8
  %11 = load i32, ptr %7, align 4, !tbaa !8
  %12 = load ptr, ptr %8, align 8, !tbaa !88
  %13 = call ptr @ggml_new_tensor_impl(ptr noundef %9, i32 noundef %10, i32 noundef %11, ptr noundef %12, ptr noundef null, i64 noundef 0)
  ret ptr %13
}

; Function Attrs: nounwind uwtable
define internal void @ggml_set_op_params_i32(ptr noundef %0, i32 noundef %1, i32 noundef %2) #5 {
  %4 = alloca ptr, align 8
  %5 = alloca i32, align 4
  %6 = alloca i32, align 4
  store ptr %0, ptr %4, align 8, !tbaa !54
  store i32 %1, ptr %5, align 4, !tbaa !8
  store i32 %2, ptr %6, align 4, !tbaa !8
  %7 = load i32, ptr %6, align 4, !tbaa !8
  %8 = load ptr, ptr %4, align 8, !tbaa !54
  %9 = getelementptr inbounds nuw %struct.ggml_tensor, ptr %8, i32 0, i32 5
  %10 = getelementptr inbounds [16 x i32], ptr %9, i64 0, i64 0
  %11 = load i32, ptr %5, align 4, !tbaa !8
  %12 = zext i32 %11 to i64
  %13 = getelementptr inbounds nuw i32, ptr %10, i64 %12
  store i32 %7, ptr %13, align 4, !tbaa !8
  ret void
}

; Function Attrs: nounwind uwtable
define ptr @ggml_new_tensor_2d(ptr noundef %0, i32 noundef %1, i64 noundef %2, i64 noundef %3) #5 {
  %5 = alloca ptr, align 8
  %6 = alloca i32, align 4
  %7 = alloca i64, align 8
  %8 = alloca i64, align 8
  %9 = alloca [2 x i64], align 16
  store ptr %0, ptr %5, align 8, !tbaa !48
  store i32 %1, ptr %6, align 4, !tbaa !8
  store i64 %2, ptr %7, align 8, !tbaa !19
  store i64 %3, ptr %8, align 8, !tbaa !19
  call void @llvm.lifetime.start.p0(i64 16, ptr %9) #14
  %10 = load i64, ptr %7, align 8, !tbaa !19
  store i64 %10, ptr %9, align 8, !tbaa !19
  %11 = getelementptr inbounds i64, ptr %9, i64 1
  %12 = load i64, ptr %8, align 8, !tbaa !19
  store i64 %12, ptr %11, align 8, !tbaa !19
  %13 = load ptr, ptr %5, align 8, !tbaa !48
  %14 = load i32, ptr %6, align 4, !tbaa !8
  %15 = getelementptr inbounds [2 x i64], ptr %9, i64 0, i64 0
  %16 = call ptr @ggml_new_tensor(ptr noundef %13, i32 noundef %14, i32 noundef 2, ptr noundef %15)
  call void @llvm.lifetime.end.p0(i64 16, ptr %9) #14
  ret ptr %16
}

; Function Attrs: nounwind uwtable
define ptr @ggml_timestep_embedding(ptr noundef %0, ptr noundef %1, i32 noundef %2, i32 noundef %3) #5 {
  %5 = alloca ptr, align 8
  %6 = alloca ptr, align 8
  %7 = alloca i32, align 4
  %8 = alloca i32, align 4
  %9 = alloca i32, align 4
  %10 = alloca ptr, align 8
  store ptr %0, ptr %5, align 8, !tbaa !48
  store ptr %1, ptr %6, align 8, !tbaa !54
  store i32 %2, ptr %7, align 4, !tbaa !8
  store i32 %3, ptr %8, align 4, !tbaa !8
  call void @llvm.lifetime.start.p0(i64 4, ptr %9) #14
  %11 = load i32, ptr %7, align 4, !tbaa !8
  store i32 %11, ptr %9, align 4, !tbaa !8
  %12 = load i32, ptr %7, align 4, !tbaa !8
  %13 = srem i32 %12, 2
  %14 = icmp ne i32 %13, 0
  br i1 %14, label %15, label %18

15:                                               ; preds = %4
  %16 = load i32, ptr %7, align 4, !tbaa !8
  %17 = add nsw i32 %16, 1
  store i32 %17, ptr %9, align 4, !tbaa !8
  br label %18

18:                                               ; preds = %15, %4
  call void @llvm.lifetime.start.p0(i64 8, ptr %10) #14
  %19 = load ptr, ptr %5, align 8, !tbaa !48
  %20 = load i32, ptr %9, align 4, !tbaa !8
  %21 = sext i32 %20 to i64
  %22 = load ptr, ptr %6, align 8, !tbaa !54
  %23 = getelementptr inbounds nuw %struct.ggml_tensor, ptr %22, i32 0, i32 2
  %24 = getelementptr inbounds [4 x i64], ptr %23, i64 0, i64 0
  %25 = load i64, ptr %24, align 8, !tbaa !19
  %26 = call ptr @ggml_new_tensor_2d(ptr noundef %19, i32 noundef 0, i64 noundef %21, i64 noundef %25)
  store ptr %26, ptr %10, align 8, !tbaa !54
  %27 = load ptr, ptr %10, align 8, !tbaa !54
  %28 = load i32, ptr %7, align 4, !tbaa !8
  call void @ggml_set_op_params_i32(ptr noundef %27, i32 noundef 0, i32 noundef %28)
  %29 = load ptr, ptr %10, align 8, !tbaa !54
  %30 = load i32, ptr %8, align 4, !tbaa !8
  call void @ggml_set_op_params_i32(ptr noundef %29, i32 noundef 1, i32 noundef %30)
  %31 = load ptr, ptr %10, align 8, !tbaa !54
  %32 = getelementptr inbounds nuw %struct.ggml_tensor, ptr %31, i32 0, i32 4
  store i32 58, ptr %32, align 8, !tbaa !68
  %33 = load ptr, ptr %6, align 8, !tbaa !54
  %34 = load ptr, ptr %10, align 8, !tbaa !54
  %35 = getelementptr inbounds nuw %struct.ggml_tensor, ptr %34, i32 0, i32 7
  %36 = getelementptr inbounds [10 x ptr], ptr %35, i64 0, i64 0
  store ptr %33, ptr %36, align 8, !tbaa !54
  %37 = load ptr, ptr %10, align 8, !tbaa !54
  call void @llvm.lifetime.end.p0(i64 8, ptr %10) #14
  call void @llvm.lifetime.end.p0(i64 4, ptr %9) #14
  ret ptr %37
}