; Function Attrs: nounwind uwtable
define noundef ptr @ggml_timestep_embedding(ptr noundef captures(none) %0, ptr noundef %1, i32 noundef %2, i32 noundef %3) local_unnamed_addr #4 {
  %5 = alloca [2 x i64], align 16
  %6 = and i32 %2, 1
  %spec.select = add nsw i32 %6, %2
  %7 = sext i32 %spec.select to i64
  %8 = getelementptr inbounds nuw i8, ptr %1, i64 16
  %9 = load i64, ptr %8, align 8, !tbaa !39
  call void @llvm.lifetime.start.p0(i64 16, ptr nonnull %5) #42
  store i64 %7, ptr %5, align 16, !tbaa !39
  %10 = getelementptr inbounds nuw i8, ptr %5, i64 8
  store i64 %9, ptr %10, align 8, !tbaa !39
  %11 = call fastcc noundef ptr @ggml_new_tensor_impl(ptr noundef %0, i32 noundef 0, i32 noundef 2, ptr noundef nonnull readonly %5, ptr noundef null, i64 noundef 0)
  call void @llvm.lifetime.end.p0(i64 16, ptr nonnull %5) #42
  %12 = getelementptr inbounds nuw i8, ptr %11, i64 84
  store i32 %2, ptr %12, align 4, !tbaa !8
  %13 = getelementptr inbounds nuw i8, ptr %11, i64 88
  store i32 %3, ptr %13, align 4, !tbaa !8
  %14 = getelementptr inbounds nuw i8, ptr %11, i64 80
  store i32 58, ptr %14, align 8, !tbaa !55
  %15 = getelementptr inbounds nuw i8, ptr %11, i64 152
  store ptr %1, ptr %15, align 8, !tbaa !81
  ret ptr %11
}